target datalayout = "e-m:e-p270:32:32-p271:32:32-p272:64:64-i64:64-i128:128-f80:128-n8:16:32:64-S128"
target triple = "x86_64-pc-linux-gnu"

%struct.SurfaceDataRasInfo = type { %struct.SurfaceDataBounds, ptr, i32, i32, i32, i32, ptr, ptr, ptr, ptr, ptr, ptr, i32, %union.anon.0 }
%struct.SurfaceDataBounds = type { i32, i32, i32, i32 }
%union.anon.0 = type { ptr, [56 x i8] }

; Function Attrs: nounwind uwtable
define hidden void @ByteIndexedBmNrstNbrTransformHelper(ptr noundef %0, ptr noundef %1, i32 noundef %2, i64 noundef %3, i64 noundef %4, i64 noundef %5, i64 noundef %6) #0 {
  %8 = alloca ptr, align 8
  %9 = alloca ptr, align 8
  %10 = alloca i32, align 4
  %11 = alloca i64, align 8
  %12 = alloca i64, align 8
  %13 = alloca i64, align 8
  %14 = alloca i64, align 8
  %15 = alloca ptr, align 8
  %16 = alloca ptr, align 8
  %17 = alloca i32, align 4
  %18 = alloca ptr, align 8
  %19 = alloca ptr, align 8
  %20 = alloca i32, align 4
  store ptr %0, ptr %8, align 8
  store ptr %1, ptr %9, align 8
  store i32 %2, ptr %10, align 4
  store i64 %3, ptr %11, align 8
  store i64 %4, ptr %12, align 8
  store i64 %5, ptr %13, align 8
  store i64 %6, ptr %14, align 8
  %21 = load ptr, ptr %8, align 8
  %22 = getelementptr inbounds %struct.SurfaceDataRasInfo, ptr %21, i32 0, i32 1
  %23 = load ptr, ptr %22, align 8
  store ptr %23, ptr %16, align 8
  %24 = load ptr, ptr %8, align 8
  %25 = getelementptr inbounds %struct.SurfaceDataRasInfo, ptr %24, i32 0, i32 4
  %26 = load i32, ptr %25, align 8
  store i32 %26, ptr %17, align 4
  %27 = load ptr, ptr %9, align 8
  %28 = load i32, ptr %10, align 4
  %29 = sext i32 %28 to i64
  %30 = getelementptr inbounds i32, ptr %27, i64 %29
  store ptr %30, ptr %18, align 8
  %31 = load ptr, ptr %8, align 8
  %32 = getelementptr inbounds %struct.SurfaceDataRasInfo, ptr %31, i32 0, i32 0
  %33 = getelementptr inbounds %struct.SurfaceDataBounds, ptr %32, i32 0, i32 0
  %34 = load i32, ptr %33, align 8
  %35 = sext i32 %34 to i64
  %36 = shl i64 %35, 32
  %37 = load i64, ptr %11, align 8
  %38 = add nsw i64 %37, %36
  store i64 %38, ptr %11, align 8
  %39 = load ptr, ptr %8, align 8
  %40 = getelementptr inbounds %struct.SurfaceDataRasInfo, ptr %39, i32 0, i32 0
  %41 = getelementptr inbounds %struct.SurfaceDataBounds, ptr %40, i32 0, i32 1
  %42 = load i32, ptr %41, align 4
  %43 = sext i32 %42 to i64
  %44 = shl i64 %43, 32
  %45 = load i64, ptr %13, align 8
  %46 = add nsw i64 %45, %44
  store i64 %46, ptr %13, align 8
  %47 = load ptr, ptr %8, align 8
  %48 = getelementptr inbounds %struct.SurfaceDataRasInfo, ptr %47, i32 0, i32 6
  %49 = load ptr, ptr %48, align 8
  store ptr %49, ptr %15, align 8
  br label %50

50:                                               ; preds = %84, %7
  %51 = load ptr, ptr %9, align 8
  %52 = load ptr, ptr %18, align 8
  %53 = icmp ult ptr %51, %52
  br i1 %53, label %54, label %93

54:                                               ; preds = %50
  %55 = load ptr, ptr %16, align 8
  %56 = ptrtoint ptr %55 to i64
  %57 = load i64, ptr %13, align 8
  %58 = ashr i64 %57, 32
  %59 = trunc i64 %58 to i32
  %60 = sext i32 %59 to i64
  %61 = load i32, ptr %17, align 4
  %62 = sext i32 %61 to i64
  %63 = mul nsw i64 %60, %62
  %64 = add nsw i64 %56, %63
  %65 = inttoptr i64 %64 to ptr
  store ptr %65, ptr %19, align 8
  br label %66

66:                                               ; preds = %54
  %67 = load ptr, ptr %15, align 8
  %68 = load ptr, ptr %19, align 8
  %69 = load i64, ptr %11, align 8
  %70 = ashr i64 %69, 32
  %71 = trunc i64 %70 to i32
  %72 = sext i32 %71 to i64
  %73 = getelementptr inbounds i8, ptr %68, i64 %72
  %74 = load i8, ptr %73, align 1
  %75 = zext i8 %74 to i64
  %76 = getelementptr inbounds i32, ptr %67, i64 %75
  %77 = load i32, ptr %76, align 4
  store i32 %77, ptr %20, align 4
  %78 = load i32, ptr %20, align 4
  %79 = load i32, ptr %20, align 4
  %80 = ashr i32 %79, 24
  %81 = and i32 %78, %80
  %82 = load ptr, ptr %9, align 8
  %83 = getelementptr inbounds i32, ptr %82, i64 0
  store i32 %81, ptr %83, align 4
  br label %84

84:                                               ; preds = %66
  %85 = load ptr, ptr %9, align 8
  %86 = getelementptr inbounds i32, ptr %85, i32 1
  store ptr %86, ptr %9, align 8
  %87 = load i64, ptr %12, align 8
  %88 = load i64, ptr %11, align 8
  %89 = add nsw i64 %88, %87
  store i64 %89, ptr %11, align 8
  %90 = load i64, ptr %14, align 8
  %91 = load i64, ptr %13, align 8
  %92 = add nsw i64 %91, %90
  store i64 %92, ptr %13, align 8
  br label %50, !llvm.loop !59

93:                                               ; preds = %50
  ret void
}