; Function Attrs: nofree norecurse nosync nounwind memory(readwrite, inaccessiblemem: none) uwtable
define hidden void @ByteIndexedBmNrstNbrTransformHelper(ptr nocapture noundef readonly %0, ptr noundef writeonly %1, i32 noundef %2, i64 noundef %3, i64 noundef %4, i64 noundef %5, i64 noundef %6) #0 {
  %8 = sext i32 %2 to i64
  %9 = getelementptr inbounds i32, ptr %1, i64 %8
  %10 = getelementptr inbounds i8, ptr %0, i64 40
  %11 = load ptr, ptr %10, align 8
  %12 = icmp sgt i32 %2, 0
  br i1 %12, label %.lr.ph, label %._crit_edge

.lr.ph:                                           ; preds = %7
  %13 = getelementptr inbounds i8, ptr %0, i64 4
  %14 = load i32, ptr %13, align 4
  %15 = sext i32 %14 to i64
  %16 = shl nsw i64 %15, 32
  %17 = add nsw i64 %16, %5
  %18 = load i32, ptr %0, align 8
  %19 = sext i32 %18 to i64
  %20 = shl nsw i64 %19, 32
  %21 = add nsw i64 %20, %3
  %22 = getelementptr inbounds i8, ptr %0, i64 32
  %23 = load i32, ptr %22, align 8
  %24 = getelementptr inbounds i8, ptr %0, i64 16
  %25 = load ptr, ptr %24, align 8
  %26 = ptrtoint ptr %25 to i64
  %27 = sext i32 %23 to i64
  br label %28

28:                                               ; preds = %.lr.ph, %28
  %.028 = phi ptr [ %1, %.lr.ph ], [ %41, %28 ]
  %.02427 = phi i64 [ %21, %.lr.ph ], [ %42, %28 ]
  %.02526 = phi i64 [ %17, %.lr.ph ], [ %43, %28 ]
  %29 = ashr i64 %.02526, 32
  %30 = mul nsw i64 %29, %27
  %31 = add nsw i64 %30, %26
  %32 = inttoptr i64 %31 to ptr
  %33 = ashr i64 %.02427, 32
  %34 = getelementptr inbounds i8, ptr %32, i64 %33
  %35 = load i8, ptr %34, align 1
  %36 = zext i8 %35 to i64
  %37 = getelementptr inbounds i32, ptr %11, i64 %36
  %38 = load i32, ptr %37, align 4
  %39 = ashr i32 %38, 24
  %40 = and i32 %39, %38
  store i32 %40, ptr %.028, align 4
  %41 = getelementptr inbounds i8, ptr %.028, i64 4
  %42 = add nsw i64 %.02427, %4
  %43 = add nsw i64 %.02526, %6
  %44 = icmp ult ptr %41, %9
  br i1 %44, label %28, label %._crit_edge, !llvm.loop !59

._crit_edge:                                      ; preds = %28, %7
  ret void
}